; Function Attrs: nounwind uwtable
define ptr @l_Lean_Meta_traverseLet___rarg(ptr noundef %0, ptr noundef %1, ptr noundef %2, ptr noundef %3, ptr noundef %4) #0 {
  tail call void @lean_inc_heartbeat() #3
  %6 = tail call noalias ptr @mi_malloc_small(i64 noundef 48) #3
  %7 = icmp eq ptr %6, null
  br i1 %7, label %8, label %lean_alloc_closure.exit

8:                                                ; preds = %5
  tail call void @lean_internal_panic_out_of_memory() #4
  unreachable

lean_alloc_closure.exit:                          ; preds = %5
  %9 = getelementptr inbounds nuw i8, ptr %6, i64 4
  store i32 1, ptr %6, align 4, !tbaa !4
  store i32 -184549328, ptr %9, align 4
  %10 = getelementptr inbounds nuw i8, ptr %6, i64 8
  store ptr @l_Lean_Meta_traverseLetWithPos___rarg, ptr %10, align 8, !tbaa !9
  %11 = getelementptr inbounds nuw i8, ptr %6, i64 16
  store i16 6, ptr %11, align 8, !tbaa !11
  %12 = getelementptr inbounds nuw i8, ptr %6, i64 18
  store i16 3, ptr %12, align 2, !tbaa !11
  %13 = getelementptr inbounds nuw i8, ptr %6, i64 24
  store ptr %0, ptr %13, align 8, !tbaa !9
  %14 = getelementptr inbounds nuw i8, ptr %6, i64 32
  store ptr %1, ptr %14, align 8, !tbaa !9
  %15 = getelementptr inbounds nuw i8, ptr %6, i64 40
  store ptr %2, ptr %15, align 8, !tbaa !9
  tail call void @lean_inc_heartbeat() #3
  %16 = tail call noalias ptr @mi_malloc_small(i64 noundef 32) #3
  %17 = icmp eq ptr %16, null
  br i1 %17, label %18, label %l___private_Lean_Meta_ExprTraverse_0__Lean_Meta_forgetPos___rarg.exit

18:                                               ; preds = %lean_alloc_closure.exit
  tail call void @lean_internal_panic_out_of_memory() #4
  unreachable

l___private_Lean_Meta_ExprTraverse_0__Lean_Meta_forgetPos___rarg.exit: ; preds = %lean_alloc_closure.exit
  %19 = getelementptr inbounds nuw i8, ptr %16, i64 4
  store i32 1, ptr %16, align 4, !tbaa !4
  store i32 -184549344, ptr %19, align 4
  %20 = getelementptr inbounds nuw i8, ptr %16, i64 8
  store ptr @l___private_Lean_Meta_ExprTraverse_0__Lean_Meta_forgetPos___rarg___lambda__1___boxed, ptr %20, align 8, !tbaa !9
  %21 = getelementptr inbounds nuw i8, ptr %16, i64 16
  store i16 3, ptr %21, align 8, !tbaa !11
  %22 = getelementptr inbounds nuw i8, ptr %16, i64 18
  store i16 1, ptr %22, align 2, !tbaa !11
  %23 = getelementptr inbounds nuw i8, ptr %16, i64 24
  store ptr %3, ptr %23, align 8, !tbaa !9
  %24 = load ptr, ptr @l_Lean_SubExpr_Pos_root, align 8, !tbaa !9
  %25 = tail call ptr @lean_apply_3(ptr noundef nonnull %6, ptr noundef nonnull %16, ptr noundef %24, ptr noundef %4) #3
  ret ptr %25
}